target datalayout = "e-m:e-p270:32:32-p271:32:32-p272:64:64-i64:64-i128:128-f80:128-n8:16:32:64-S128"
target triple = "x86_64-pc-linux-gnu"

%struct.RelationData = type { %struct.RelFileLocator, ptr, i32, i32, i8, i8, i8, i8, i8, i32, i32, i32, i32, ptr, ptr, i32, %struct.LockInfoData, ptr, ptr, ptr, ptr, ptr, i8, ptr, ptr, ptr, ptr, ptr, ptr, i32, ptr, i8, ptr, ptr, i32, i8, i32, ptr, i8, ptr, ptr, ptr, ptr, ptr, ptr, ptr, i32, ptr, ptr, ptr, ptr, ptr, ptr, ptr, ptr, ptr, ptr, ptr, ptr, ptr, ptr, ptr, ptr, ptr, ptr, ptr, i32, i8, ptr }
%struct.RelFileLocator = type { i32, i32, i32 }
%struct.LockInfoData = type { %struct.LockRelId }
%struct.LockRelId = type { i32, i32 }
%struct.FormData_pg_index = type { i32, i32, i16, i16, i8, i8, i8, i8, i8, i8, i8, i8, i8, i8, i8, %struct.int2vector }
%struct.int2vector = type { i32, i32, i32, i32, i32, i32, [0 x i16] }
%struct.IndexTupleData = type { %struct.ItemPointerData, i16 }
%struct.ItemPointerData = type { %struct.BlockIdData, i16 }
%struct.BlockIdData = type { i16, i16 }
%struct.PageHeaderData = type { %struct.PageXLogRecPtr, i16, i16, i16, i16, i16, i16, i32, [0 x %struct.ItemIdData] }
%struct.PageXLogRecPtr = type { i32, i32 }
%struct.ItemIdData = type { i32 }
%struct.BTPageOpaqueData = type { i32, i32, i32, i16, i16 }

; Function Attrs: inlinehint nounwind uwtable
define internal zeroext i16 @ItemPointerGetOffsetNumber(ptr noundef %0) #2 {
  %2 = alloca ptr, align 8
  store ptr %0, ptr %2, align 8
  %3 = load ptr, ptr %2, align 8
  %4 = call zeroext i16 @ItemPointerGetOffsetNumberNoCheck(ptr noundef %3)
  ret i16 %4
}

; Function Attrs: inlinehint nounwind uwtable
define internal zeroext i1 @BTreeTupleIsPosting(ptr noundef %0) #2 {
  %2 = alloca i1, align 1
  %3 = alloca ptr, align 8
  store ptr %0, ptr %3, align 8
  %4 = load ptr, ptr %3, align 8
  %5 = getelementptr inbounds nuw %struct.IndexTupleData, ptr %4, i32 0, i32 1
  %6 = load i16, ptr %5, align 2
  %7 = zext i16 %6 to i32
  %8 = and i32 %7, 8192
  %9 = icmp eq i32 %8, 0
  br i1 %9, label %10, label %11

10:                                               ; preds = %1
  store i1 false, ptr %2, align 1
  br label %20

11:                                               ; preds = %1
  %12 = load ptr, ptr %3, align 8
  %13 = getelementptr inbounds nuw %struct.IndexTupleData, ptr %12, i32 0, i32 0
  %14 = call zeroext i16 @ItemPointerGetOffsetNumberNoCheck(ptr noundef %13)
  %15 = zext i16 %14 to i32
  %16 = and i32 %15, 8192
  %17 = icmp eq i32 %16, 0
  br i1 %17, label %18, label %19

18:                                               ; preds = %11
  store i1 false, ptr %2, align 1
  br label %20

19:                                               ; preds = %11
  store i1 true, ptr %2, align 1
  br label %20

20:                                               ; preds = %19, %18, %10
  %21 = load i1, ptr %2, align 1
  ret i1 %21
}

; Function Attrs: inlinehint nounwind uwtable
define internal zeroext i16 @ItemPointerGetOffsetNumberNoCheck(ptr noundef %0) #2 {
  %2 = alloca ptr, align 8
  store ptr %0, ptr %2, align 8
  %3 = load ptr, ptr %2, align 8
  %4 = getelementptr inbounds nuw %struct.ItemPointerData, ptr %3, i32 0, i32 1
  %5 = load i16, ptr %4, align 2
  ret i16 %5
}

; Function Attrs: inlinehint nounwind uwtable
define internal zeroext i1 @BTreeTupleIsPivot(ptr noundef %0) #2 {
  %2 = alloca i1, align 1
  %3 = alloca ptr, align 8
  store ptr %0, ptr %3, align 8
  %4 = load ptr, ptr %3, align 8
  %5 = getelementptr inbounds nuw %struct.IndexTupleData, ptr %4, i32 0, i32 1
  %6 = load i16, ptr %5, align 2
  %7 = zext i16 %6 to i32
  %8 = and i32 %7, 8192
  %9 = icmp eq i32 %8, 0
  br i1 %9, label %10, label %11

10:                                               ; preds = %1
  store i1 false, ptr %2, align 1
  br label %20

11:                                               ; preds = %1
  %12 = load ptr, ptr %3, align 8
  %13 = getelementptr inbounds nuw %struct.IndexTupleData, ptr %12, i32 0, i32 0
  %14 = call zeroext i16 @ItemPointerGetOffsetNumberNoCheck(ptr noundef %13)
  %15 = zext i16 %14 to i32
  %16 = and i32 %15, 8192
  %17 = icmp ne i32 %16, 0
  br i1 %17, label %18, label %19

18:                                               ; preds = %11
  store i1 false, ptr %2, align 1
  br label %20

19:                                               ; preds = %11
  store i1 true, ptr %2, align 1
  br label %20

20:                                               ; preds = %19, %18, %10
  %21 = load i1, ptr %2, align 1
  ret i1 %21
}

; Function Attrs: inlinehint nounwind uwtable
define internal ptr @PageGetItem(ptr noundef %0, ptr noundef %1) #2 {
  %3 = alloca ptr, align 8
  %4 = alloca ptr, align 8
  store ptr %0, ptr %3, align 8
  store ptr %1, ptr %4, align 8
  %5 = load ptr, ptr %3, align 8
  %6 = load ptr, ptr %4, align 8
  %7 = load i32, ptr %6, align 4
  %8 = and i32 %7, 32767
  %9 = sext i32 %8 to i64
  %10 = getelementptr inbounds i8, ptr %5, i64 %9
  ret ptr %10
}

; Function Attrs: inlinehint nounwind uwtable
define internal ptr @PageGetItemId(ptr noundef %0, i16 noundef zeroext %1) #2 {
  %3 = alloca ptr, align 8
  %4 = alloca i16, align 2
  store ptr %0, ptr %3, align 8
  store i16 %1, ptr %4, align 2
  %5 = load ptr, ptr %3, align 8
  %6 = getelementptr inbounds nuw %struct.PageHeaderData, ptr %5, i32 0, i32 8
  %7 = load i16, ptr %4, align 2
  %8 = zext i16 %7 to i32
  %9 = sub i32 %8, 1
  %10 = sext i32 %9 to i64
  %11 = getelementptr inbounds [0 x %struct.ItemIdData], ptr %6, i64 0, i64 %10
  ret ptr %11
}

; Function Attrs: inlinehint nounwind uwtable
define internal void @PageValidateSpecialPointer(ptr noundef %0) #2 {
  %2 = alloca ptr, align 8
  store ptr %0, ptr %2, align 8
  ret void
}

; Function Attrs: nounwind uwtable
define dso_local zeroext i1 @_bt_check_natts(ptr noundef %0, i1 noundef zeroext %1, ptr noundef %2, i16 noundef zeroext %3) #0 {
  %5 = alloca i1, align 1
  %6 = alloca ptr, align 8
  %7 = alloca i8, align 1
  %8 = alloca ptr, align 8
  %9 = alloca i16, align 2
  %10 = alloca i16, align 2
  %11 = alloca i16, align 2
  %12 = alloca ptr, align 8
  %13 = alloca ptr, align 8
  %14 = alloca i32, align 4
  %15 = alloca i32, align 4
  store ptr %0, ptr %6, align 8
  %16 = zext i1 %1 to i8
  store i8 %16, ptr %7, align 1
  store ptr %2, ptr %8, align 8
  store i16 %3, ptr %9, align 2
  call void @llvm.lifetime.start.p0(i64 2, ptr %10) #8
  %17 = load ptr, ptr %6, align 8
  %18 = getelementptr inbounds nuw %struct.RelationData, ptr %17, i32 0, i32 48
  %19 = load ptr, ptr %18, align 8
  %20 = getelementptr inbounds nuw %struct.FormData_pg_index, ptr %19, i32 0, i32 2
  %21 = load i16, ptr %20, align 4
  store i16 %21, ptr %10, align 2
  call void @llvm.lifetime.start.p0(i64 2, ptr %11) #8
  %22 = load ptr, ptr %6, align 8
  %23 = getelementptr inbounds nuw %struct.RelationData, ptr %22, i32 0, i32 48
  %24 = load ptr, ptr %23, align 8
  %25 = getelementptr inbounds nuw %struct.FormData_pg_index, ptr %24, i32 0, i32 3
  %26 = load i16, ptr %25, align 2
  store i16 %26, ptr %11, align 2
  call void @llvm.lifetime.start.p0(i64 8, ptr %12) #8
  %27 = load ptr, ptr %8, align 8
  call void @PageValidateSpecialPointer(ptr noundef %27)
  %28 = load ptr, ptr %8, align 8
  %29 = load ptr, ptr %8, align 8
  %30 = getelementptr inbounds nuw %struct.PageHeaderData, ptr %29, i32 0, i32 5
  %31 = load i16, ptr %30, align 4
  %32 = zext i16 %31 to i32
  %33 = sext i32 %32 to i64
  %34 = getelementptr inbounds i8, ptr %28, i64 %33
  store ptr %34, ptr %12, align 8
  call void @llvm.lifetime.start.p0(i64 8, ptr %13) #8
  call void @llvm.lifetime.start.p0(i64 4, ptr %14) #8
  %35 = load ptr, ptr %12, align 8
  %36 = getelementptr inbounds nuw %struct.BTPageOpaqueData, ptr %35, i32 0, i32 3
  %37 = load i16, ptr %36, align 4
  %38 = zext i16 %37 to i32
  %39 = and i32 %38, 20
  %40 = icmp ne i32 %39, 0
  br i1 %40, label %41, label %42

41:                                               ; preds = %4
  store i1 true, ptr %5, align 1
  store i32 1, ptr %15, align 4
  br label %191

42:                                               ; preds = %4
  %43 = load ptr, ptr %8, align 8
  %44 = load ptr, ptr %8, align 8
  %45 = load i16, ptr %9, align 2
  %46 = call ptr @PageGetItemId(ptr noundef %44, i16 noundef zeroext %45)
  %47 = call ptr @PageGetItem(ptr noundef %43, ptr noundef %46)
  store ptr %47, ptr %13, align 8
  %48 = load ptr, ptr %13, align 8
  %49 = call zeroext i1 @BTreeTupleIsPivot(ptr noundef %48)
  br i1 %49, label %50, label %56

50:                                               ; preds = %42
  %51 = load ptr, ptr %13, align 8
  %52 = getelementptr inbounds nuw %struct.IndexTupleData, ptr %51, i32 0, i32 0
  %53 = call zeroext i16 @ItemPointerGetOffsetNumberNoCheck(ptr noundef %52)
  %54 = zext i16 %53 to i32
  %55 = and i32 %54, 4095
  br label %63

56:                                               ; preds = %42
  %57 = load ptr, ptr %6, align 8
  %58 = getelementptr inbounds nuw %struct.RelationData, ptr %57, i32 0, i32 48
  %59 = load ptr, ptr %58, align 8
  %60 = getelementptr inbounds nuw %struct.FormData_pg_index, ptr %59, i32 0, i32 2
  %61 = load i16, ptr %60, align 4
  %62 = sext i16 %61 to i32
  br label %63

63:                                               ; preds = %56, %50
  %64 = phi i32 [ %55, %50 ], [ %62, %56 ]
  store i32 %64, ptr %14, align 4
  %65 = load i8, ptr %7, align 1, !range !4, !noundef !5
  %66 = trunc i8 %65 to i1
  br i1 %66, label %71, label %67

67:                                               ; preds = %63
  %68 = load ptr, ptr %13, align 8
  %69 = call zeroext i1 @BTreeTupleIsPosting(ptr noundef %68)
  br i1 %69, label %70, label %71

70:                                               ; preds = %67
  store i1 false, ptr %5, align 1
  store i32 1, ptr %15, align 4
  br label %191

71:                                               ; preds = %67, %63
  %72 = load ptr, ptr %13, align 8
  %73 = call zeroext i1 @BTreeTupleIsPosting(ptr noundef %72)
  br i1 %73, label %74, label %82

74:                                               ; preds = %71
  %75 = load ptr, ptr %13, align 8
  %76 = getelementptr inbounds nuw %struct.IndexTupleData, ptr %75, i32 0, i32 0
  %77 = call zeroext i16 @ItemPointerGetOffsetNumberNoCheck(ptr noundef %76)
  %78 = zext i16 %77 to i32
  %79 = and i32 %78, 4096
  %80 = icmp ne i32 %79, 0
  br i1 %80, label %81, label %82

81:                                               ; preds = %74
  store i1 false, ptr %5, align 1
  store i32 1, ptr %15, align 4
  br label %191

82:                                               ; preds = %74, %71
  %83 = load i16, ptr %10, align 2
  %84 = sext i16 %83 to i32
  %85 = load i16, ptr %11, align 2
  %86 = sext i16 %85 to i32
  %87 = icmp ne i32 %84, %86
  br i1 %87, label %88, label %92

88:                                               ; preds = %82
  %89 = load ptr, ptr %13, align 8
  %90 = call zeroext i1 @BTreeTupleIsPosting(ptr noundef %89)
  br i1 %90, label %91, label %92

91:                                               ; preds = %88
  store i1 false, ptr %5, align 1
  store i32 1, ptr %15, align 4
  br label %191

92:                                               ; preds = %88, %82
  %93 = load ptr, ptr %12, align 8
  %94 = getelementptr inbounds nuw %struct.BTPageOpaqueData, ptr %93, i32 0, i32 3
  %95 = load i16, ptr %94, align 4
  %96 = zext i16 %95 to i32
  %97 = and i32 %96, 1
  %98 = icmp ne i32 %97, 0
  br i1 %98, label %99, label %127

99:                                               ; preds = %92
  %100 = load i16, ptr %9, align 2
  %101 = zext i16 %100 to i32
  %102 = load ptr, ptr %12, align 8
  %103 = getelementptr inbounds nuw %struct.BTPageOpaqueData, ptr %102, i32 0, i32 1
  %104 = load i32, ptr %103, align 4
  %105 = icmp eq i32 %104, 0
  %106 = select i1 %105, i32 1, i32 2
  %107 = icmp sge i32 %101, %106
  br i1 %107, label %108, label %117

108:                                              ; preds = %99
  %109 = load ptr, ptr %13, align 8
  %110 = call zeroext i1 @BTreeTupleIsPivot(ptr noundef %109)
  br i1 %110, label %111, label %112

111:                                              ; preds = %108
  store i1 false, ptr %5, align 1
  store i32 1, ptr %15, align 4
  br label %191

112:                                              ; preds = %108
  %113 = load i32, ptr %14, align 4
  %114 = load i16, ptr %10, align 2
  %115 = sext i16 %114 to i32
  %116 = icmp eq i32 %113, %115
  store i1 %116, ptr %5, align 1
  store i32 1, ptr %15, align 4
  br label %191

117:                                              ; preds = %99
  %118 = load i8, ptr %7, align 1, !range !4, !noundef !5
  %119 = trunc i8 %118 to i1
  br i1 %119, label %125, label %120

120:                                              ; preds = %117
  %121 = load i32, ptr %14, align 4
  %122 = load i16, ptr %11, align 2
  %123 = sext i16 %122 to i32
  %124 = icmp eq i32 %121, %123
  store i1 %124, ptr %5, align 1
  store i32 1, ptr %15, align 4
  br label %191

125:                                              ; preds = %117
  br label %126

126:                                              ; preds = %125
  br label %163

127:                                              ; preds = %92
  %128 = load i16, ptr %9, align 2
  %129 = zext i16 %128 to i32
  %130 = load ptr, ptr %12, align 8
  %131 = getelementptr inbounds nuw %struct.BTPageOpaqueData, ptr %130, i32 0, i32 1
  %132 = load i32, ptr %131, align 4
  %133 = icmp eq i32 %132, 0
  %134 = select i1 %133, i32 1, i32 2
  %135 = icmp eq i32 %129, %134
  br i1 %135, label %136, label %153

136:                                              ; preds = %127
  %137 = load i8, ptr %7, align 1, !range !4, !noundef !5
  %138 = trunc i8 %137 to i1
  br i1 %138, label %139, label %142

139:                                              ; preds = %136
  %140 = load i32, ptr %14, align 4
  %141 = icmp eq i32 %140, 0
  store i1 %141, ptr %5, align 1
  store i32 1, ptr %15, align 4
  br label %191

142:                                              ; preds = %136
  %143 = load i32, ptr %14, align 4
  %144 = icmp eq i32 %143, 0
  br i1 %144, label %151, label %145

145:                                              ; preds = %142
  %146 = load ptr, ptr %13, align 8
  %147 = getelementptr inbounds nuw %struct.IndexTupleData, ptr %146, i32 0, i32 0
  %148 = call zeroext i16 @ItemPointerGetOffsetNumber(ptr noundef %147)
  %149 = zext i16 %148 to i32
  %150 = icmp eq i32 %149, 1
  br label %151

151:                                              ; preds = %145, %142
  %152 = phi i1 [ true, %142 ], [ %150, %145 ]
  store i1 %152, ptr %5, align 1
  store i32 1, ptr %15, align 4
  br label %191

153:                                              ; preds = %127
  %154 = load i8, ptr %7, align 1, !range !4, !noundef !5
  %155 = trunc i8 %154 to i1
  br i1 %155, label %161, label %156

156:                                              ; preds = %153
  %157 = load i32, ptr %14, align 4
  %158 = load i16, ptr %11, align 2
  %159 = sext i16 %158 to i32
  %160 = icmp eq i32 %157, %159
  store i1 %160, ptr %5, align 1
  store i32 1, ptr %15, align 4
  br label %191

161:                                              ; preds = %153
  br label %162

162:                                              ; preds = %161
  br label %163

163:                                              ; preds = %162, %126
  %164 = load ptr, ptr %13, align 8
  %165 = call zeroext i1 @BTreeTupleIsPivot(ptr noundef %164)
  br i1 %165, label %167, label %166

166:                                              ; preds = %163
  store i1 false, ptr %5, align 1
  store i32 1, ptr %15, align 4
  br label %191

167:                                              ; preds = %163
  %168 = load ptr, ptr %13, align 8
  %169 = call zeroext i1 @BTreeTupleIsPosting(ptr noundef %168)
  br i1 %169, label %170, label %171

170:                                              ; preds = %167
  store i1 false, ptr %5, align 1
  store i32 1, ptr %15, align 4
  br label %191

171:                                              ; preds = %167
  %172 = load ptr, ptr %13, align 8
  %173 = call ptr @BTreeTupleGetHeapTID(ptr noundef %172)
  %174 = icmp ne ptr %173, null
  br i1 %174, label %175, label %181

175:                                              ; preds = %171
  %176 = load i32, ptr %14, align 4
  %177 = load i16, ptr %11, align 2
  %178 = sext i16 %177 to i32
  %179 = icmp ne i32 %176, %178
  br i1 %179, label %180, label %181

180:                                              ; preds = %175
  store i1 false, ptr %5, align 1
  store i32 1, ptr %15, align 4
  br label %191

181:                                              ; preds = %175, %171
  %182 = load i32, ptr %14, align 4
  %183 = icmp sgt i32 %182, 0
  br i1 %183, label %184, label %189

184:                                              ; preds = %181
  %185 = load i32, ptr %14, align 4
  %186 = load i16, ptr %11, align 2
  %187 = sext i16 %186 to i32
  %188 = icmp sle i32 %185, %187
  br label %189

189:                                              ; preds = %184, %181
  %190 = phi i1 [ false, %181 ], [ %188, %184 ]
  store i1 %190, ptr %5, align 1
  store i32 1, ptr %15, align 4
  br label %191

191:                                              ; preds = %189, %180, %170, %166, %156, %151, %139, %120, %112, %111, %91, %81, %70, %41
  call void @llvm.lifetime.end.p0(i64 4, ptr %14) #8
  call void @llvm.lifetime.end.p0(i64 8, ptr %13) #8
  call void @llvm.lifetime.end.p0(i64 8, ptr %12) #8
  call void @llvm.lifetime.end.p0(i64 2, ptr %11) #8
  call void @llvm.lifetime.end.p0(i64 2, ptr %10) #8
  %192 = load i1, ptr %5, align 1
  ret i1 %192
}