; Function Attrs: mustprogress nofree norecurse nosync nounwind willreturn memory(read, inaccessiblemem: none) uwtable
define dso_local zeroext i1 @_bt_check_natts(ptr noundef readonly captures(none) %0, i1 noundef zeroext %1, ptr noundef readonly captures(address) %2, i16 noundef zeroext %3) local_unnamed_addr #11 {
  %5 = getelementptr inbounds nuw i8, ptr %0, i64 328
  %6 = load ptr, ptr %5, align 8
  %7 = getelementptr inbounds nuw i8, ptr %6, i64 8
  %8 = load i16, ptr %7, align 4
  %9 = getelementptr inbounds nuw i8, ptr %6, i64 10
  %10 = load i16, ptr %9, align 2
  %11 = getelementptr inbounds nuw i8, ptr %2, i64 16
  %12 = load i16, ptr %11, align 4
  %13 = zext i16 %12 to i64
  %14 = getelementptr inbounds nuw i8, ptr %2, i64 %13
  %15 = getelementptr inbounds nuw i8, ptr %14, i64 12
  %16 = load i16, ptr %15, align 4
  %17 = and i16 %16, 20
  %.not = icmp eq i16 %17, 0
  br i1 %.not, label %18, label %BTreeTupleIsPivot.exit69.thread

18:                                               ; preds = %4
  %19 = getelementptr inbounds nuw i8, ptr %2, i64 24
  %20 = zext i16 %3 to i64
  %21 = add nsw i64 %20, -1
  %22 = getelementptr inbounds [0 x %struct.ItemIdData], ptr %19, i64 0, i64 %21
  %.val52 = load i32, ptr %22, align 4
  %23 = and i32 %.val52, 32767
  %24 = zext nneg i32 %23 to i64
  %25 = getelementptr inbounds nuw i8, ptr %2, i64 %24
  %26 = getelementptr inbounds nuw i8, ptr %25, i64 6
  %27 = load i16, ptr %26, align 2
  %28 = and i16 %27, 8192
  %29 = icmp eq i16 %28, 0
  br i1 %29, label %.thread80, label %BTreeTupleIsPivot.exit

BTreeTupleIsPivot.exit:                           ; preds = %18
  %30 = getelementptr i8, ptr %25, i64 4
  %.val.i = load i16, ptr %30, align 2
  %31 = and i16 %.val.i, 8192
  %.not.i = icmp eq i16 %31, 0
  br i1 %.not.i, label %.thread, label %.thread90

.thread80:                                        ; preds = %18
  %32 = sext i16 %8 to i32
  br label %BTreeTupleIsPosting.exit61.thread

.thread90:                                        ; preds = %BTreeTupleIsPivot.exit
  %33 = sext i16 %8 to i32
  %34 = and i16 %.val.i, 4096
  %.not45 = icmp eq i16 %34, 0
  %or.cond100 = and i1 %1, %.not45
  %.not4698 = icmp eq i16 %8, %10
  %or.cond101 = select i1 %or.cond100, i1 %.not4698, i1 false
  br i1 %or.cond101, label %BTreeTupleIsPosting.exit61.thread, label %BTreeTupleIsPivot.exit69.thread

.thread:                                          ; preds = %BTreeTupleIsPivot.exit
  %35 = and i16 %.val.i, 4095
  %36 = zext nneg i16 %35 to i32
  br label %BTreeTupleIsPosting.exit61.thread

BTreeTupleIsPosting.exit61.thread:                ; preds = %.thread, %.thread90, %.thread80
  %37 = phi i32 [ %36, %.thread ], [ %32, %.thread80 ], [ %33, %.thread90 ]
  %38 = sext i16 %8 to i32
  %39 = sext i16 %10 to i32
  %40 = and i16 %16, 1
  %.not47 = icmp eq i16 %40, 0
  %41 = zext i16 %3 to i32
  %42 = getelementptr inbounds nuw i8, ptr %14, i64 4
  %43 = load i32, ptr %42, align 4
  %44 = icmp eq i32 %43, 0
  %45 = select i1 %44, i32 1, i32 2
  br i1 %.not47, label %55, label %46

46:                                               ; preds = %BTreeTupleIsPosting.exit61.thread
  %.not48 = icmp samesign ugt i32 %45, %41
  br i1 %.not48, label %52, label %47

47:                                               ; preds = %46
  br i1 %29, label %BTreeTupleIsPivot.exit65.thread, label %BTreeTupleIsPivot.exit65

BTreeTupleIsPivot.exit65.thread:                  ; preds = %47
  %48 = icmp eq i32 %37, %38
  br label %BTreeTupleIsPivot.exit69.thread

BTreeTupleIsPivot.exit65:                         ; preds = %47
  %49 = getelementptr i8, ptr %25, i64 4
  %.val.i62 = load i16, ptr %49, align 2
  %.val.i62.fr = freeze i16 %.val.i62
  %50 = and i16 %.val.i62.fr, 8192
  %.not.i63 = icmp ne i16 %50, 0
  %51 = icmp eq i32 %37, %38
  %spec.select = select i1 %.not.i63, i1 %51, i1 false
  br label %BTreeTupleIsPivot.exit69.thread

52:                                               ; preds = %46
  br i1 %1, label %65, label %53

53:                                               ; preds = %52
  %54 = icmp eq i32 %37, %39
  br label %BTreeTupleIsPivot.exit69.thread

55:                                               ; preds = %BTreeTupleIsPosting.exit61.thread
  %56 = icmp eq i32 %45, %41
  br i1 %56, label %57, label %62

57:                                               ; preds = %55
  %58 = icmp eq i32 %37, 0
  %brmerge102 = select i1 %1, i1 true, i1 %58
  %not. = xor i1 %1, true
  %.mux = select i1 %not., i1 true, i1 %58
  br i1 %brmerge102, label %BTreeTupleIsPivot.exit69.thread, label %59

59:                                               ; preds = %57
  %60 = getelementptr i8, ptr %25, i64 4
  %.val53 = load i16, ptr %60, align 2
  %61 = icmp eq i16 %.val53, 1
  br label %BTreeTupleIsPivot.exit69.thread

62:                                               ; preds = %55
  br i1 %1, label %65, label %63

63:                                               ; preds = %62
  %64 = icmp eq i32 %37, %39
  br label %BTreeTupleIsPivot.exit69.thread

65:                                               ; preds = %62, %52
  br i1 %29, label %BTreeTupleIsPivot.exit69.thread, label %BTreeTupleIsPivot.exit69

BTreeTupleIsPivot.exit69:                         ; preds = %65
  %66 = getelementptr i8, ptr %25, i64 4
  %.val.i66 = load i16, ptr %66, align 2
  %67 = and i16 %.val.i66, 8192
  %.not.i67 = icmp eq i16 %67, 0
  br i1 %.not.i67, label %BTreeTupleIsPosting.exit72, label %BTreeTupleIsPivot.exit69.thread

BTreeTupleIsPosting.exit72:                       ; preds = %BTreeTupleIsPivot.exit69
  %68 = tail call fastcc ptr @BTreeTupleGetHeapTID(ptr noundef nonnull %25)
  %.not49 = icmp eq ptr %68, null
  %.not50 = icmp eq i32 %37, %39
  %or.cond = select i1 %.not49, i1 true, i1 %.not50
  br i1 %or.cond, label %69, label %BTreeTupleIsPivot.exit69.thread

69:                                               ; preds = %BTreeTupleIsPosting.exit72
  %70 = icmp sgt i32 %37, 0
  %71 = icmp sle i32 %37, %39
  %72 = select i1 %70, i1 %71, i1 false
  br label %BTreeTupleIsPivot.exit69.thread

BTreeTupleIsPivot.exit69.thread:                  ; preds = %57, %.thread90, %BTreeTupleIsPivot.exit65, %65, %BTreeTupleIsPivot.exit65.thread, %BTreeTupleIsPosting.exit72, %BTreeTupleIsPivot.exit69, %59, %4, %69, %63, %53
  %.0 = phi i1 [ %72, %69 ], [ %54, %53 ], [ %64, %63 ], [ true, %4 ], [ %61, %59 ], [ false, %BTreeTupleIsPivot.exit69 ], [ false, %BTreeTupleIsPosting.exit72 ], [ %48, %BTreeTupleIsPivot.exit65.thread ], [ false, %65 ], [ %spec.select, %BTreeTupleIsPivot.exit65 ], [ false, %.thread90 ], [ %.mux, %57 ]
  ret i1 %.0
}